	.file	"trans.c"
	.text
.Ltext0:
	.globl	transpose_switch
	.type	transpose_switch, @function
transpose_switch:
.LFB0:
	.file 1 "trans.c"
	.loc 1 23 62
	.cfi_startproc
	endbr64
	pushq	%rbp
	.cfi_def_cfa_offset 16
	.cfi_offset 6, -16
	movq	%rsp, %rbp
	.cfi_def_cfa_register 6
	pushq	%r15
	pushq	%r14
	pushq	%r13
	pushq	%r12
	pushq	%rbx
	.cfi_offset 15, -24
	.cfi_offset 14, -32
	.cfi_offset 13, -40
	.cfi_offset 12, -48
	.cfi_offset 3, -56
	movl	%edi, -68(%rbp)
	movl	%esi, -72(%rbp)
	movq	%rdx, -80(%rbp)
	movq	%rcx, -88(%rbp)
	.loc 1 23 41
	movl	-68(%rbp), %r14d
	movslq	%r14d, %rax
	subq	$1, %rax
	.loc 1 23 6
	movq	%rax, -64(%rbp)
	movslq	%r14d, %rax
	movq	%rax, %r10
	movl	$0, %r11d
	.loc 1 23 54
	movl	-72(%rbp), %edi
	movslq	%edi, %rax
	subq	$1, %rax
	.loc 1 23 6
	movq	%rax, -56(%rbp)
	movslq	%edi, %rax
	movq	%rax, %r8
	movl	$0, %r9d
	.loc 1 26 7
	cmpl	$32, -68(%rbp)
	jne	.L28
	.loc 1 26 16 discriminator 1
	cmpl	$32, -72(%rbp)
	jne	.L28
	.loc 1 27 16
	movl	$0, %r13d
	.loc 1 27 9
	jmp	.L3
.L25:
	.loc 1 28 20
	movl	$0, %r12d
	.loc 1 28 13
	jmp	.L4
.L24:
	.loc 1 29 24
	movl	$0, %ebx
	.loc 1 29 17
	jmp	.L5
.L23:
	.loc 1 31 32
	leal	(%r12,%rbx), %eax
	movslq	%eax, %rdx
	.loc 1 31 29
	movslq	%r14d, %rax
	imulq	%rdx, %rax
	leaq	0(,%rax,4), %rdx
	movq	-80(%rbp), %rax
	addq	%rax, %rdx
	.loc 1 31 26
	movslq	%r13d, %rax
	movl	(%rdx,%rax,4), %eax
	movl	%eax, %r11d
	.loc 1 31 57
	leal	(%r12,%rbx), %eax
	movslq	%eax, %rdx
	.loc 1 31 54
	movslq	%r14d, %rax
	imulq	%rdx, %rax
	leaq	0(,%rax,4), %rdx
	movq	-80(%rbp), %rax
	addq	%rax, %rdx
	.loc 1 31 65
	leal	1(%r13), %eax
	.loc 1 31 51
	cltq
	movl	(%rdx,%rax,4), %eax
	movl	%eax, %r10d
	.loc 1 31 82
	leal	(%r12,%rbx), %eax
	movslq	%eax, %rdx
	.loc 1 31 79
	movslq	%r14d, %rax
	imulq	%rdx, %rax
	leaq	0(,%rax,4), %rdx
	movq	-80(%rbp), %rax
	addq	%rax, %rdx
	.loc 1 31 90
	leal	2(%r13), %eax
	.loc 1 31 76
	cltq
	movl	(%rdx,%rax,4), %eax
	movl	%eax, -92(%rbp)
	.loc 1 31 107
	leal	(%r12,%rbx), %eax
	movslq	%eax, %rdx
	.loc 1 31 104
	movslq	%r14d, %rax
	imulq	%rdx, %rax
	leaq	0(,%rax,4), %rdx
	movq	-80(%rbp), %rax
	addq	%rax, %rdx
	.loc 1 31 115
	leal	3(%r13), %eax
	.loc 1 31 101
	cltq
	movl	(%rdx,%rax,4), %eax
	movl	%eax, -96(%rbp)
	.loc 1 32 32
	leal	(%r12,%rbx), %eax
	movslq	%eax, %rdx
	.loc 1 32 29
	movslq	%r14d, %rax
	imulq	%rdx, %rax
	leaq	0(,%rax,4), %rdx
	movq	-80(%rbp), %rax
	addq	%rax, %rdx
	.loc 1 32 40
	leal	4(%r13), %eax
	.loc 1 32 26
	cltq
	movl	(%rdx,%rax,4), %eax
	movl	%eax, -100(%rbp)
	.loc 1 32 57
	leal	(%r12,%rbx), %eax
	movslq	%eax, %rdx
	.loc 1 32 54
	movslq	%r14d, %rax
	imulq	%rdx, %rax
	leaq	0(,%rax,4), %rdx
	movq	-80(%rbp), %rax
	addq	%rax, %rdx
	.loc 1 32 65
	leal	5(%r13), %eax
	.loc 1 32 51
	cltq
	movl	(%rdx,%rax,4), %eax
	movl	%eax, -104(%rbp)
	.loc 1 32 82
	leal	(%r12,%rbx), %eax
	movslq	%eax, %rdx
	.loc 1 32 79
	movslq	%r14d, %rax
	imulq	%rdx, %rax
	leaq	0(,%rax,4), %rdx
	movq	-80(%rbp), %rax
	addq	%rax, %rdx
	.loc 1 32 90
	leal	6(%r13), %eax
	.loc 1 32 76
	cltq
	movl	(%rdx,%rax,4), %r15d
	.loc 1 32 107
	leal	(%r12,%rbx), %eax
	movslq	%eax, %rdx
	.loc 1 32 104
	movslq	%r14d, %rax
	imulq	%rdx, %rax
	leaq	0(,%rax,4), %rdx
	movq	-80(%rbp), %rax
	addq	%rax, %rdx
	.loc 1 32 115
	leal	7(%r13), %eax
	.loc 1 32 101
	cltq
	movl	(%rdx,%rax,4), %eax
	movl	%eax, %ecx
	.loc 1 35 21
	cmpl	$7, %ebx
	je	.L6
	cmpl	$7, %ebx
	jg	.L29
	cmpl	$6, %ebx
	je	.L8
	cmpl	$6, %ebx
	jg	.L29
	cmpl	$5, %ebx
	je	.L9
	cmpl	$5, %ebx
	jg	.L29
	cmpl	$4, %ebx
	je	.L10
	cmpl	$4, %ebx
	jg	.L29
	cmpl	$3, %ebx
	je	.L11
	cmpl	$3, %ebx
	jg	.L29
	cmpl	$2, %ebx
	je	.L12
	cmpl	$2, %ebx
	jg	.L29
	testl	%ebx, %ebx
	je	.L13
	cmpl	$1, %ebx
	je	.L14
	.loc 1 61 25
	jmp	.L29
.L13:
	.loc 1 37 29
	leal	0(%r13,%rbx), %eax
	movslq	%eax, %rdx
	.loc 1 37 26
	movslq	%edi, %rax
	imulq	%rdx, %rax
	leaq	0(,%rax,4), %rdx
	movq	-88(%rbp), %rax
	addq	%rax, %rdx
	.loc 1 37 38
	movslq	%r12d, %rax
	movl	%r11d, %esi
	movl	%esi, (%rdx,%rax,4)
.L14:
	.loc 1 40 29
	leal	0(%r13,%rbx), %eax
	movslq	%eax, %rdx
	.loc 1 40 26
	movslq	%edi, %rax
	imulq	%rdx, %rax
	leaq	0(,%rax,4), %rdx
	movq	-88(%rbp), %rax
	addq	%rax, %rdx
	.loc 1 40 37
	leal	1(%r12), %eax
	.loc 1 40 42
	cltq
	movl	%r10d, %esi
	movl	%esi, (%rdx,%rax,4)
.L12:
	.loc 1 43 29
	leal	0(%r13,%rbx), %eax
	movslq	%eax, %rdx
	.loc 1 43 26
	movslq	%edi, %rax
	imulq	%rdx, %rax
	leaq	0(,%rax,4), %rdx
	movq	-88(%rbp), %rax
	addq	%rax, %rdx
	.loc 1 43 37
	leal	2(%r12), %eax
	.loc 1 43 42
	cltq
	movl	-92(%rbp), %esi
	movl	%esi, (%rdx,%rax,4)
.L11:
	.loc 1 46 29
	leal	0(%r13,%rbx), %eax
	movslq	%eax, %rdx
	.loc 1 46 26
	movslq	%edi, %rax
	imulq	%rdx, %rax
	leaq	0(,%rax,4), %rdx
	movq	-88(%rbp), %rax
	addq	%rax, %rdx
	.loc 1 46 37
	leal	3(%r12), %eax
	.loc 1 46 42
	cltq
	movl	-96(%rbp), %esi
	movl	%esi, (%rdx,%rax,4)
.L10:
	.loc 1 49 29
	leal	0(%r13,%rbx), %eax
	movslq	%eax, %rdx
	.loc 1 49 26
	movslq	%edi, %rax
	imulq	%rdx, %rax
	leaq	0(,%rax,4), %rdx
	movq	-88(%rbp), %rax
	addq	%rax, %rdx
	.loc 1 49 37
	leal	4(%r12), %eax
	.loc 1 49 42
	cltq
	movl	-100(%rbp), %esi
	movl	%esi, (%rdx,%rax,4)
.L9:
	.loc 1 52 29
	leal	0(%r13,%rbx), %eax
	movslq	%eax, %rdx
	.loc 1 52 26
	movslq	%edi, %rax
	imulq	%rdx, %rax
	leaq	0(,%rax,4), %rdx
	movq	-88(%rbp), %rax
	addq	%rax, %rdx
	.loc 1 52 37
	leal	5(%r12), %eax
	.loc 1 52 42
	cltq
	movl	-104(%rbp), %esi
	movl	%esi, (%rdx,%rax,4)
.L8:
	.loc 1 55 29
	leal	0(%r13,%rbx), %eax
	movslq	%eax, %rdx
	.loc 1 55 26
	movslq	%edi, %rax
	imulq	%rdx, %rax
	leaq	0(,%rax,4), %rdx
	movq	-88(%rbp), %rax
	addq	%rax, %rdx
	.loc 1 55 37
	leal	6(%r12), %eax
	.loc 1 55 42
	cltq
	movl	%r15d, (%rdx,%rax,4)
.L6:
	.loc 1 58 29
	leal	0(%r13,%rbx), %eax
	movslq	%eax, %rdx
	.loc 1 58 26
	movslq	%edi, %rax
	imulq	%rdx, %rax
	leaq	0(,%rax,4), %rdx
	movq	-88(%rbp), %rax
	addq	%rax, %rdx
	.loc 1 58 37
	leal	7(%r12), %eax
	.loc 1 58 42
	cltq
	movl	%ecx, %esi
	movl	%esi, (%rdx,%rax,4)
.L29:
	.loc 1 61 25
	nop
	.loc 1 65 21
	cmpl	$7, %ebx
	je	.L15
	cmpl	$7, %ebx
	jg	.L30
	cmpl	$6, %ebx
	je	.L17
	cmpl	$6, %ebx
	jg	.L30
	cmpl	$5, %ebx
	je	.L18
	cmpl	$5, %ebx
	jg	.L30
	cmpl	$4, %ebx
	je	.L19
	cmpl	$4, %ebx
	jg	.L30
	cmpl	$3, %ebx
	je	.L20
	cmpl	$3, %ebx
	jg	.L30
	cmpl	$1, %ebx
	je	.L21
	cmpl	$2, %ebx
	je	.L22
	.loc 1 96 25
	jmp	.L30
.L15:
	.loc 1 67 48
	leal	6(%r13), %eax
	movslq	%eax, %rdx
	.loc 1 67 45
	movslq	%edi, %rax
	imulq	%rdx, %rax
	leaq	0(,%rax,4), %rdx
	movq	-88(%rbp), %rax
	leaq	(%rdx,%rax), %r9
	.loc 1 67 55
	leal	(%r12,%rbx), %r8d
	.loc 1 67 29
	leal	0(%r13,%rbx), %eax
	movslq	%eax, %rdx
	.loc 1 67 26
	movslq	%edi, %rax
	imulq	%rdx, %rax
	leaq	0(,%rax,4), %rdx
	movq	-88(%rbp), %rax
	leaq	(%rdx,%rax), %rsi
	.loc 1 67 37
	leal	6(%r12), %ecx
	.loc 1 67 52
	movslq	%r8d, %rax
	movl	(%r9,%rax,4), %edx
	.loc 1 67 42
	movslq	%ecx, %rax
	movl	%edx, (%rsi,%rax,4)
	.loc 1 68 29
	leal	6(%r13), %eax
	movslq	%eax, %rdx
	.loc 1 68 26
	movslq	%edi, %rax
	imulq	%rdx, %rax
	leaq	0(,%rax,4), %rdx
	movq	-88(%rbp), %rax
	addq	%rax, %rdx
	.loc 1 68 36
	leal	(%r12,%rbx), %eax
	.loc 1 68 42
	cltq
	movl	%r15d, (%rdx,%rax,4)
.L17:
	.loc 1 71 48
	leal	5(%r13), %eax
	movslq	%eax, %rdx
	.loc 1 71 45
	movslq	%edi, %rax
	imulq	%rdx, %rax
	leaq	0(,%rax,4), %rdx
	movq	-88(%rbp), %rax
	leaq	(%rdx,%rax), %r9
	.loc 1 71 55
	leal	(%r12,%rbx), %r8d
	.loc 1 71 29
	leal	0(%r13,%rbx), %eax
	movslq	%eax, %rdx
	.loc 1 71 26
	movslq	%edi, %rax
	imulq	%rdx, %rax
	leaq	0(,%rax,4), %rdx
	movq	-88(%rbp), %rax
	leaq	(%rdx,%rax), %rcx
	.loc 1 71 37
	leal	5(%r12), %esi
	.loc 1 71 52
	movslq	%r8d, %rax
	movl	(%r9,%rax,4), %edx
	.loc 1 71 42
	movslq	%esi, %rax
	movl	%edx, (%rcx,%rax,4)
	.loc 1 72 29
	leal	5(%r13), %eax
	movslq	%eax, %rdx
	.loc 1 72 26
	movslq	%edi, %rax
	imulq	%rdx, %rax
	leaq	0(,%rax,4), %rdx
	movq	-88(%rbp), %rax
	addq	%rax, %rdx
	.loc 1 72 36
	leal	(%r12,%rbx), %eax
	.loc 1 72 42
	cltq
	movl	-104(%rbp), %esi
	movl	%esi, (%rdx,%rax,4)
.L18:
	.loc 1 75 48
	leal	4(%r13), %eax
	movslq	%eax, %rdx
	.loc 1 75 45
	movslq	%edi, %rax
	imulq	%rdx, %rax
	leaq	0(,%rax,4), %rdx
	movq	-88(%rbp), %rax
	addq	%rax, %rdx
	.loc 1 75 55
	leal	(%r12,%rbx), %eax
	.loc 1 75 29
	leal	0(%r13,%rbx), %ecx
	movslq	%ecx, %rsi
	.loc 1 75 26
	movslq	%edi, %rcx
	imulq	%rsi, %rcx
	leaq	0(,%rcx,4), %rsi
	movq	-88(%rbp), %rcx
	addq	%rsi, %rcx
	.loc 1 75 37
	leal	4(%r12), %esi
	.loc 1 75 52
	cltq
	movl	(%rdx,%rax,4), %edx
	.loc 1 75 42
	movslq	%esi, %rax
	movl	%edx, (%rcx,%rax,4)
	.loc 1 76 29
	leal	4(%r13), %eax
	movslq	%eax, %rdx
	.loc 1 76 26
	movslq	%edi, %rax
	imulq	%rdx, %rax
	leaq	0(,%rax,4), %rdx
	movq	-88(%rbp), %rax
	addq	%rax, %rdx
	.loc 1 76 36
	leal	(%r12,%rbx), %eax
	.loc 1 76 42
	cltq
	movl	-100(%rbp), %esi
	movl	%esi, (%rdx,%rax,4)
.L19:
	.loc 1 79 48
	leal	3(%r13), %eax
	movslq	%eax, %rdx
	.loc 1 79 45
	movslq	%edi, %rax
	imulq	%rdx, %rax
	leaq	0(,%rax,4), %rdx
	movq	-88(%rbp), %rax
	addq	%rax, %rdx
	.loc 1 79 55
	leal	(%r12,%rbx), %eax
	.loc 1 79 29
	leal	0(%r13,%rbx), %ecx
	movslq	%ecx, %rsi
	.loc 1 79 26
	movslq	%edi, %rcx
	imulq	%rsi, %rcx
	leaq	0(,%rcx,4), %rsi
	movq	-88(%rbp), %rcx
	addq	%rsi, %rcx
	.loc 1 79 37
	leal	3(%r12), %esi
	.loc 1 79 52
	cltq
	movl	(%rdx,%rax,4), %edx
	.loc 1 79 42
	movslq	%esi, %rax
	movl	%edx, (%rcx,%rax,4)
	.loc 1 80 29
	leal	3(%r13), %eax
	movslq	%eax, %rdx
	.loc 1 80 26
	movslq	%edi, %rax
	imulq	%rdx, %rax
	leaq	0(,%rax,4), %rdx
	movq	-88(%rbp), %rax
	addq	%rax, %rdx
	.loc 1 80 36
	leal	(%r12,%rbx), %eax
	.loc 1 80 42
	cltq
	movl	-96(%rbp), %esi
	movl	%esi, (%rdx,%rax,4)
.L20:
	.loc 1 83 48
	leal	2(%r13), %eax
	movslq	%eax, %rdx
	.loc 1 83 45
	movslq	%edi, %rax
	imulq	%rdx, %rax
	leaq	0(,%rax,4), %rdx
	movq	-88(%rbp), %rax
	addq	%rax, %rdx
	.loc 1 83 55
	leal	(%r12,%rbx), %eax
	.loc 1 83 29
	leal	0(%r13,%rbx), %ecx
	movslq	%ecx, %rsi
	.loc 1 83 26
	movslq	%edi, %rcx
	imulq	%rsi, %rcx
	leaq	0(,%rcx,4), %rsi
	movq	-88(%rbp), %rcx
	addq	%rsi, %rcx
	.loc 1 83 37
	leal	2(%r12), %esi
	.loc 1 83 52
	cltq
	movl	(%rdx,%rax,4), %edx
	.loc 1 83 42
	movslq	%esi, %rax
	movl	%edx, (%rcx,%rax,4)
	.loc 1 84 29
	leal	2(%r13), %eax
	movslq	%eax, %rdx
	.loc 1 84 26
	movslq	%edi, %rax
	imulq	%rdx, %rax
	leaq	0(,%rax,4), %rdx
	movq	-88(%rbp), %rax
	addq	%rax, %rdx
	.loc 1 84 36
	leal	(%r12,%rbx), %eax
	.loc 1 84 42
	cltq
	movl	-92(%rbp), %esi
	movl	%esi, (%rdx,%rax,4)
.L22:
	.loc 1 87 48
	leal	1(%r13), %eax
	movslq	%eax, %rdx
	.loc 1 87 45
	movslq	%edi, %rax
	imulq	%rdx, %rax
	leaq	0(,%rax,4), %rdx
	movq	-88(%rbp), %rax
	addq	%rax, %rdx
	.loc 1 87 55
	leal	(%r12,%rbx), %eax
	.loc 1 87 29
	leal	0(%r13,%rbx), %ecx
	movslq	%ecx, %rsi
	.loc 1 87 26
	movslq	%edi, %rcx
	imulq	%rsi, %rcx
	leaq	0(,%rcx,4), %rsi
	movq	-88(%rbp), %rcx
	addq	%rsi, %rcx
	.loc 1 87 37
	leal	1(%r12), %esi
	.loc 1 87 52
	cltq
	movl	(%rdx,%rax,4), %edx
	.loc 1 87 42
	movslq	%esi, %rax
	movl	%edx, (%rcx,%rax,4)
	.loc 1 88 29
	leal	1(%r13), %eax
	movslq	%eax, %rdx
	.loc 1 88 26
	movslq	%edi, %rax
	imulq	%rdx, %rax
	leaq	0(,%rax,4), %rdx
	movq	-88(%rbp), %rax
	addq	%rax, %rdx
	.loc 1 88 36
	leal	(%r12,%rbx), %eax
	.loc 1 88 42
	cltq
	movl	%r10d, %ecx
	movl	%ecx, (%rdx,%rax,4)
.L21:
	.loc 1 91 41
	movslq	%r13d, %rdx
	movslq	%edi, %rax
	imulq	%rdx, %rax
	leaq	0(,%rax,4), %rdx
	movq	-88(%rbp), %rax
	addq	%rax, %rdx
	.loc 1 91 47
	leal	(%r12,%rbx), %eax
	.loc 1 91 29
	leal	0(%r13,%rbx), %ecx
	movslq	%ecx, %rsi
	.loc 1 91 26
	movslq	%edi, %rcx
	imulq	%rsi, %rcx
	leaq	0(,%rcx,4), %rsi
	movq	-88(%rbp), %rcx
	addq	%rsi, %rcx
	.loc 1 91 44
	cltq
	movl	(%rdx,%rax,4), %edx
	.loc 1 91 38
	movslq	%r12d, %rax
	movl	%edx, (%rcx,%rax,4)
	.loc 1 92 26
	movslq	%r13d, %rdx
	movslq	%edi, %rax
	imulq	%rdx, %rax
	leaq	0(,%rax,4), %rdx
	movq	-88(%rbp), %rax
	addq	%rax, %rdx
	.loc 1 92 32
	leal	(%r12,%rbx), %eax
	.loc 1 92 38
	cltq
	movl	%r11d, %esi
	movl	%esi, (%rdx,%rax,4)
.L30:
	.loc 1 96 25
	nop
	.loc 1 29 39
	addl	$1, %ebx
.L5:
	.loc 1 29 17 discriminator 1
	cmpl	$7, %ebx
	jle	.L23
	.loc 1 28 34 discriminator 2
	addl	$8, %r12d
.L4:
	.loc 1 28 13 discriminator 1
	cmpl	-72(%rbp), %r12d
	jl	.L24
	.loc 1 27 30 discriminator 2
	addl	$8, %r13d
.L3:
	.loc 1 27 9 discriminator 1
	cmpl	-68(%rbp), %r13d
	jl	.L25
.L28:
	.loc 1 157 5
	nop
	popq	%rbx
	popq	%r12
	popq	%r13
	popq	%r14
	popq	%r15
	popq	%rbp
	.cfi_def_cfa 7, 8
	ret
	.cfi_endproc
.LFE0:
	.size	transpose_switch, .-transpose_switch
	.globl	transpose_submit_desc
	.data
	.align 16
	.type	transpose_submit_desc, @object
	.size	transpose_submit_desc, 21
transpose_submit_desc:
	.string	"Transpose submission"
	.text
	.globl	transpose_submit
	.type	transpose_submit, @function
transpose_submit:
.LFB1:
	.loc 1 160 62
	.cfi_startproc
	endbr64
	pushq	%rbp
	.cfi_def_cfa_offset 16
	.cfi_offset 6, -16
	movq	%rsp, %rbp
	.cfi_def_cfa_register 6
	pushq	%r15
	pushq	%r14
	pushq	%r13
	pushq	%r12
	pushq	%rbx
	.cfi_offset 15, -24
	.cfi_offset 14, -32
	.cfi_offset 13, -40
	.cfi_offset 12, -48
	.cfi_offset 3, -56
	movl	%edi, -68(%rbp)
	movl	%esi, -72(%rbp)
	movq	%rdx, -80(%rbp)
	movq	%rcx, -88(%rbp)
	.loc 1 160 41
	movl	-68(%rbp), %r14d
	movslq	%r14d, %rax
	subq	$1, %rax
	.loc 1 160 6
	movq	%rax, -64(%rbp)
	movslq	%r14d, %rax
	movq	%rax, %r10
	movl	$0, %r11d
	.loc 1 160 54
	movl	-72(%rbp), %edi
	movslq	%edi, %rax
	subq	$1, %rax
	.loc 1 160 6
	movq	%rax, -56(%rbp)
	movslq	%edi, %rax
	movq	%rax, %r8
	movl	$0, %r9d
	.loc 1 163 7
	cmpl	$32, -68(%rbp)
	jne	.L58
	.loc 1 163 16 discriminator 1
	cmpl	$32, -72(%rbp)
	jne	.L58
	.loc 1 164 16
	movl	$0, %r13d
	.loc 1 164 9
	jmp	.L33
.L55:
	.loc 1 165 20
	movl	$0, %r12d
	.loc 1 165 13
	jmp	.L34
.L54:
	.loc 1 166 24
	movl	$0, %ebx
	.loc 1 166 17
	jmp	.L35
.L53:
	.loc 1 168 32
	leal	(%r12,%rbx), %eax
	movslq	%eax, %rdx
	.loc 1 168 29
	movslq	%r14d, %rax
	imulq	%rdx, %rax
	leaq	0(,%rax,4), %rdx
	movq	-80(%rbp), %rax
	addq	%rax, %rdx
	.loc 1 168 26
	movslq	%r13d, %rax
	movl	(%rdx,%rax,4), %eax
	movl	%eax, %r11d
	.loc 1 168 57
	leal	(%r12,%rbx), %eax
	movslq	%eax, %rdx
	.loc 1 168 54
	movslq	%r14d, %rax
	imulq	%rdx, %rax
	leaq	0(,%rax,4), %rdx
	movq	-80(%rbp), %rax
	addq	%rax, %rdx
	.loc 1 168 65
	leal	1(%r13), %eax
	.loc 1 168 51
	cltq
	movl	(%rdx,%rax,4), %eax
	movl	%eax, %r10d
	.loc 1 168 82
	leal	(%r12,%rbx), %eax
	movslq	%eax, %rdx
	.loc 1 168 79
	movslq	%r14d, %rax
	imulq	%rdx, %rax
	leaq	0(,%rax,4), %rdx
	movq	-80(%rbp), %rax
	addq	%rax, %rdx
	.loc 1 168 90
	leal	2(%r13), %eax
	.loc 1 168 76
	cltq
	movl	(%rdx,%rax,4), %eax
	movl	%eax, -92(%rbp)
	.loc 1 168 107
	leal	(%r12,%rbx), %eax
	movslq	%eax, %rdx
	.loc 1 168 104
	movslq	%r14d, %rax
	imulq	%rdx, %rax
	leaq	0(,%rax,4), %rdx
	movq	-80(%rbp), %rax
	addq	%rax, %rdx
	.loc 1 168 115
	leal	3(%r13), %eax
	.loc 1 168 101
	cltq
	movl	(%rdx,%rax,4), %eax
	movl	%eax, -96(%rbp)
	.loc 1 169 32
	leal	(%r12,%rbx), %eax
	movslq	%eax, %rdx
	.loc 1 169 29
	movslq	%r14d, %rax
	imulq	%rdx, %rax
	leaq	0(,%rax,4), %rdx
	movq	-80(%rbp), %rax
	addq	%rax, %rdx
	.loc 1 169 40
	leal	4(%r13), %eax
	.loc 1 169 26
	cltq
	movl	(%rdx,%rax,4), %eax
	movl	%eax, -100(%rbp)
	.loc 1 169 57
	leal	(%r12,%rbx), %eax
	movslq	%eax, %rdx
	.loc 1 169 54
	movslq	%r14d, %rax
	imulq	%rdx, %rax
	leaq	0(,%rax,4), %rdx
	movq	-80(%rbp), %rax
	addq	%rax, %rdx
	.loc 1 169 65
	leal	5(%r13), %eax
	.loc 1 169 51
	cltq
	movl	(%rdx,%rax,4), %eax
	movl	%eax, -104(%rbp)
	.loc 1 169 82
	leal	(%r12,%rbx), %eax
	movslq	%eax, %rdx
	.loc 1 169 79
	movslq	%r14d, %rax
	imulq	%rdx, %rax
	leaq	0(,%rax,4), %rdx
	movq	-80(%rbp), %rax
	addq	%rax, %rdx
	.loc 1 169 90
	leal	6(%r13), %eax
	.loc 1 169 76
	cltq
	movl	(%rdx,%rax,4), %r15d
	.loc 1 169 107
	leal	(%r12,%rbx), %eax
	movslq	%eax, %rdx
	.loc 1 169 104
	movslq	%r14d, %rax
	imulq	%rdx, %rax
	leaq	0(,%rax,4), %rdx
	movq	-80(%rbp), %rax
	addq	%rax, %rdx
	.loc 1 169 115
	leal	7(%r13), %eax
	.loc 1 169 101
	cltq
	movl	(%rdx,%rax,4), %eax
	movl	%eax, %ecx
	.loc 1 172 21
	cmpl	$7, %ebx
	je	.L36
	cmpl	$7, %ebx
	jg	.L59
	cmpl	$6, %ebx
	je	.L38
	cmpl	$6, %ebx
	jg	.L59
	cmpl	$5, %ebx
	je	.L39
	cmpl	$5, %ebx
	jg	.L59
	cmpl	$4, %ebx
	je	.L40
	cmpl	$4, %ebx
	jg	.L59
	cmpl	$3, %ebx
	je	.L41
	cmpl	$3, %ebx
	jg	.L59
	cmpl	$2, %ebx
	je	.L42
	cmpl	$2, %ebx
	jg	.L59
	testl	%ebx, %ebx
	je	.L43
	cmpl	$1, %ebx
	je	.L44
	.loc 1 198 25
	jmp	.L59
.L43:
	.loc 1 174 29
	leal	0(%r13,%rbx), %eax
	movslq	%eax, %rdx
	.loc 1 174 26
	movslq	%edi, %rax
	imulq	%rdx, %rax
	leaq	0(,%rax,4), %rdx
	movq	-88(%rbp), %rax
	addq	%rax, %rdx
	.loc 1 174 38
	movslq	%r12d, %rax
	movl	%r11d, %esi
	movl	%esi, (%rdx,%rax,4)
.L44:
	.loc 1 177 29
	leal	0(%r13,%rbx), %eax
	movslq	%eax, %rdx
	.loc 1 177 26
	movslq	%edi, %rax
	imulq	%rdx, %rax
	leaq	0(,%rax,4), %rdx
	movq	-88(%rbp), %rax
	addq	%rax, %rdx
	.loc 1 177 37
	leal	1(%r12), %eax
	.loc 1 177 42
	cltq
	movl	%r10d, %esi
	movl	%esi, (%rdx,%rax,4)
.L42:
	.loc 1 180 29
	leal	0(%r13,%rbx), %eax
	movslq	%eax, %rdx
	.loc 1 180 26
	movslq	%edi, %rax
	imulq	%rdx, %rax
	leaq	0(,%rax,4), %rdx
	movq	-88(%rbp), %rax
	addq	%rax, %rdx
	.loc 1 180 37
	leal	2(%r12), %eax
	.loc 1 180 42
	cltq
	movl	-92(%rbp), %esi
	movl	%esi, (%rdx,%rax,4)
.L41:
	.loc 1 183 29
	leal	0(%r13,%rbx), %eax
	movslq	%eax, %rdx
	.loc 1 183 26
	movslq	%edi, %rax
	imulq	%rdx, %rax
	leaq	0(,%rax,4), %rdx
	movq	-88(%rbp), %rax
	addq	%rax, %rdx
	.loc 1 183 37
	leal	3(%r12), %eax
	.loc 1 183 42
	cltq
	movl	-96(%rbp), %esi
	movl	%esi, (%rdx,%rax,4)
.L40:
	.loc 1 186 29
	leal	0(%r13,%rbx), %eax
	movslq	%eax, %rdx
	.loc 1 186 26
	movslq	%edi, %rax
	imulq	%rdx, %rax
	leaq	0(,%rax,4), %rdx
	movq	-88(%rbp), %rax
	addq	%rax, %rdx
	.loc 1 186 37
	leal	4(%r12), %eax
	.loc 1 186 42
	cltq
	movl	-100(%rbp), %esi
	movl	%esi, (%rdx,%rax,4)
.L39:
	.loc 1 189 29
	leal	0(%r13,%rbx), %eax
	movslq	%eax, %rdx
	.loc 1 189 26
	movslq	%edi, %rax
	imulq	%rdx, %rax
	leaq	0(,%rax,4), %rdx
	movq	-88(%rbp), %rax
	addq	%rax, %rdx
	.loc 1 189 37
	leal	5(%r12), %eax
	.loc 1 189 42
	cltq
	movl	-104(%rbp), %esi
	movl	%esi, (%rdx,%rax,4)
.L38:
	.loc 1 192 29
	leal	0(%r13,%rbx), %eax
	movslq	%eax, %rdx
	.loc 1 192 26
	movslq	%edi, %rax
	imulq	%rdx, %rax
	leaq	0(,%rax,4), %rdx
	movq	-88(%rbp), %rax
	addq	%rax, %rdx
	.loc 1 192 37
	leal	6(%r12), %eax
	.loc 1 192 42
	cltq
	movl	%r15d, (%rdx,%rax,4)
.L36:
	.loc 1 195 29
	leal	0(%r13,%rbx), %eax
	movslq	%eax, %rdx
	.loc 1 195 26
	movslq	%edi, %rax
	imulq	%rdx, %rax
	leaq	0(,%rax,4), %rdx
	movq	-88(%rbp), %rax
	addq	%rax, %rdx
	.loc 1 195 37
	leal	7(%r12), %eax
	.loc 1 195 42
	cltq
	movl	%ecx, %esi
	movl	%esi, (%rdx,%rax,4)
.L59:
	.loc 1 198 25
	nop
	.loc 1 202 21
	cmpl	$7, %ebx
	je	.L45
	cmpl	$7, %ebx
	jg	.L60
	cmpl	$6, %ebx
	je	.L47
	cmpl	$6, %ebx
	jg	.L60
	cmpl	$5, %ebx
	je	.L48
	cmpl	$5, %ebx
	jg	.L60
	cmpl	$4, %ebx
	je	.L49
	cmpl	$4, %ebx
	jg	.L60
	cmpl	$3, %ebx
	je	.L50
	cmpl	$3, %ebx
	jg	.L60
	cmpl	$1, %ebx
	je	.L51
	cmpl	$2, %ebx
	je	.L52
	.loc 1 233 25
	jmp	.L60
.L45:
	.loc 1 204 48
	leal	6(%r13), %eax
	movslq	%eax, %rdx
	.loc 1 204 45
	movslq	%edi, %rax
	imulq	%rdx, %rax
	leaq	0(,%rax,4), %rdx
	movq	-88(%rbp), %rax
	leaq	(%rdx,%rax), %r9
	.loc 1 204 55
	leal	(%r12,%rbx), %r8d
	.loc 1 204 29
	leal	0(%r13,%rbx), %eax
	movslq	%eax, %rdx
	.loc 1 204 26
	movslq	%edi, %rax
	imulq	%rdx, %rax
	leaq	0(,%rax,4), %rdx
	movq	-88(%rbp), %rax
	leaq	(%rdx,%rax), %rsi
	.loc 1 204 37
	leal	6(%r12), %ecx
	.loc 1 204 52
	movslq	%r8d, %rax
	movl	(%r9,%rax,4), %edx
	.loc 1 204 42
	movslq	%ecx, %rax
	movl	%edx, (%rsi,%rax,4)
	.loc 1 205 29
	leal	6(%r13), %eax
	movslq	%eax, %rdx
	.loc 1 205 26
	movslq	%edi, %rax
	imulq	%rdx, %rax
	leaq	0(,%rax,4), %rdx
	movq	-88(%rbp), %rax
	addq	%rax, %rdx
	.loc 1 205 36
	leal	(%r12,%rbx), %eax
	.loc 1 205 42
	cltq
	movl	%r15d, (%rdx,%rax,4)
.L47:
	.loc 1 208 48
	leal	5(%r13), %eax
	movslq	%eax, %rdx
	.loc 1 208 45
	movslq	%edi, %rax
	imulq	%rdx, %rax
	leaq	0(,%rax,4), %rdx
	movq	-88(%rbp), %rax
	leaq	(%rdx,%rax), %r9
	.loc 1 208 55
	leal	(%r12,%rbx), %r8d
	.loc 1 208 29
	leal	0(%r13,%rbx), %eax
	movslq	%eax, %rdx
	.loc 1 208 26
	movslq	%edi, %rax
	imulq	%rdx, %rax
	leaq	0(,%rax,4), %rdx
	movq	-88(%rbp), %rax
	leaq	(%rdx,%rax), %rcx
	.loc 1 208 37
	leal	5(%r12), %esi
	.loc 1 208 52
	movslq	%r8d, %rax
	movl	(%r9,%rax,4), %edx
	.loc 1 208 42
	movslq	%esi, %rax
	movl	%edx, (%rcx,%rax,4)
	.loc 1 209 29
	leal	5(%r13), %eax
	movslq	%eax, %rdx
	.loc 1 209 26
	movslq	%edi, %rax
	imulq	%rdx, %rax
	leaq	0(,%rax,4), %rdx
	movq	-88(%rbp), %rax
	addq	%rax, %rdx
	.loc 1 209 36
	leal	(%r12,%rbx), %eax
	.loc 1 209 42
	cltq
	movl	-104(%rbp), %esi
	movl	%esi, (%rdx,%rax,4)
.L48:
	.loc 1 212 48
	leal	4(%r13), %eax
	movslq	%eax, %rdx
	.loc 1 212 45
	movslq	%edi, %rax
	imulq	%rdx, %rax
	leaq	0(,%rax,4), %rdx
	movq	-88(%rbp), %rax
	addq	%rax, %rdx
	.loc 1 212 55
	leal	(%r12,%rbx), %eax
	.loc 1 212 29
	leal	0(%r13,%rbx), %ecx
	movslq	%ecx, %rsi
	.loc 1 212 26
	movslq	%edi, %rcx
	imulq	%rsi, %rcx
	leaq	0(,%rcx,4), %rsi
	movq	-88(%rbp), %rcx
	addq	%rsi, %rcx
	.loc 1 212 37
	leal	4(%r12), %esi
	.loc 1 212 52
	cltq
	movl	(%rdx,%rax,4), %edx
	.loc 1 212 42
	movslq	%esi, %rax
	movl	%edx, (%rcx,%rax,4)
	.loc 1 213 29
	leal	4(%r13), %eax
	movslq	%eax, %rdx
	.loc 1 213 26
	movslq	%edi, %rax
	imulq	%rdx, %rax
	leaq	0(,%rax,4), %rdx
	movq	-88(%rbp), %rax
	addq	%rax, %rdx
	.loc 1 213 36
	leal	(%r12,%rbx), %eax
	.loc 1 213 42
	cltq
	movl	-100(%rbp), %esi
	movl	%esi, (%rdx,%rax,4)
.L49:
	.loc 1 216 48
	leal	3(%r13), %eax
	movslq	%eax, %rdx
	.loc 1 216 45
	movslq	%edi, %rax
	imulq	%rdx, %rax
	leaq	0(,%rax,4), %rdx
	movq	-88(%rbp), %rax
	addq	%rax, %rdx
	.loc 1 216 55
	leal	(%r12,%rbx), %eax
	.loc 1 216 29
	leal	0(%r13,%rbx), %ecx
	movslq	%ecx, %rsi
	.loc 1 216 26
	movslq	%edi, %rcx
	imulq	%rsi, %rcx
	leaq	0(,%rcx,4), %rsi
	movq	-88(%rbp), %rcx
	addq	%rsi, %rcx
	.loc 1 216 37
	leal	3(%r12), %esi
	.loc 1 216 52
	cltq
	movl	(%rdx,%rax,4), %edx
	.loc 1 216 42
	movslq	%esi, %rax
	movl	%edx, (%rcx,%rax,4)
	.loc 1 217 29
	leal	3(%r13), %eax
	movslq	%eax, %rdx
	.loc 1 217 26
	movslq	%edi, %rax
	imulq	%rdx, %rax
	leaq	0(,%rax,4), %rdx
	movq	-88(%rbp), %rax
	addq	%rax, %rdx
	.loc 1 217 36
	leal	(%r12,%rbx), %eax
	.loc 1 217 42
	cltq
	movl	-96(%rbp), %esi
	movl	%esi, (%rdx,%rax,4)
.L50:
	.loc 1 220 48
	leal	2(%r13), %eax
	movslq	%eax, %rdx
	.loc 1 220 45
	movslq	%edi, %rax
	imulq	%rdx, %rax
	leaq	0(,%rax,4), %rdx
	movq	-88(%rbp), %rax
	addq	%rax, %rdx
	.loc 1 220 55
	leal	(%r12,%rbx), %eax
	.loc 1 220 29
	leal	0(%r13,%rbx), %ecx
	movslq	%ecx, %rsi
	.loc 1 220 26
	movslq	%edi, %rcx
	imulq	%rsi, %rcx
	leaq	0(,%rcx,4), %rsi
	movq	-88(%rbp), %rcx
	addq	%rsi, %rcx
	.loc 1 220 37
	leal	2(%r12), %esi
	.loc 1 220 52
	cltq
	movl	(%rdx,%rax,4), %edx
	.loc 1 220 42
	movslq	%esi, %rax
	movl	%edx, (%rcx,%rax,4)
	.loc 1 221 29
	leal	2(%r13), %eax
	movslq	%eax, %rdx
	.loc 1 221 26
	movslq	%edi, %rax
	imulq	%rdx, %rax
	leaq	0(,%rax,4), %rdx
	movq	-88(%rbp), %rax
	addq	%rax, %rdx
	.loc 1 221 36
	leal	(%r12,%rbx), %eax
	.loc 1 221 42
	cltq
	movl	-92(%rbp), %esi
	movl	%esi, (%rdx,%rax,4)
.L52:
	.loc 1 224 48
	leal	1(%r13), %eax
	movslq	%eax, %rdx
	.loc 1 224 45
	movslq	%edi, %rax
	imulq	%rdx, %rax
	leaq	0(,%rax,4), %rdx
	movq	-88(%rbp), %rax
	addq	%rax, %rdx
	.loc 1 224 55
	leal	(%r12,%rbx), %eax
	.loc 1 224 29
	leal	0(%r13,%rbx), %ecx
	movslq	%ecx, %rsi
	.loc 1 224 26
	movslq	%edi, %rcx
	imulq	%rsi, %rcx
	leaq	0(,%rcx,4), %rsi
	movq	-88(%rbp), %rcx
	addq	%rsi, %rcx
	.loc 1 224 37
	leal	1(%r12), %esi
	.loc 1 224 52
	cltq
	movl	(%rdx,%rax,4), %edx
	.loc 1 224 42
	movslq	%esi, %rax
	movl	%edx, (%rcx,%rax,4)
	.loc 1 225 29
	leal	1(%r13), %eax
	movslq	%eax, %rdx
	.loc 1 225 26
	movslq	%edi, %rax
	imulq	%rdx, %rax
	leaq	0(,%rax,4), %rdx
	movq	-88(%rbp), %rax
	addq	%rax, %rdx
	.loc 1 225 36
	leal	(%r12,%rbx), %eax
	.loc 1 225 42
	cltq
	movl	%r10d, %ecx
	movl	%ecx, (%rdx,%rax,4)
.L51:
	.loc 1 228 41
	movslq	%r13d, %rdx
	movslq	%edi, %rax
	imulq	%rdx, %rax
	leaq	0(,%rax,4), %rdx
	movq	-88(%rbp), %rax
	addq	%rax, %rdx
	.loc 1 228 47
	leal	(%r12,%rbx), %eax
	.loc 1 228 29
	leal	0(%r13,%rbx), %ecx
	movslq	%ecx, %rsi
	.loc 1 228 26
	movslq	%edi, %rcx
	imulq	%rsi, %rcx
	leaq	0(,%rcx,4), %rsi
	movq	-88(%rbp), %rcx
	addq	%rsi, %rcx
	.loc 1 228 44
	cltq
	movl	(%rdx,%rax,4), %edx
	.loc 1 228 38
	movslq	%r12d, %rax
	movl	%edx, (%rcx,%rax,4)
	.loc 1 229 26
	movslq	%r13d, %rdx
	movslq	%edi, %rax
	imulq	%rdx, %rax
	leaq	0(,%rax,4), %rdx
	movq	-88(%rbp), %rax
	addq	%rax, %rdx
	.loc 1 229 32
	leal	(%r12,%rbx), %eax
	.loc 1 229 38
	cltq
	movl	%r11d, %esi
	movl	%esi, (%rdx,%rax,4)
.L60:
	.loc 1 233 25
	nop
	.loc 1 166 39
	addl	$1, %ebx
.L35:
	.loc 1 166 17 discriminator 1
	cmpl	$7, %ebx
	jle	.L53
	.loc 1 165 34 discriminator 2
	addl	$8, %r12d
.L34:
	.loc 1 165 13 discriminator 1
	cmpl	-72(%rbp), %r12d
	jl	.L54
	.loc 1 164 30 discriminator 2
	addl	$8, %r13d
.L33:
	.loc 1 164 9 discriminator 1
	cmpl	-68(%rbp), %r13d
	jl	.L55
.L58:
	.loc 1 294 5
	nop
	popq	%rbx
	popq	%r12
	popq	%r13
	popq	%r14
	popq	%r15
	popq	%rbp
	.cfi_def_cfa 7, 8
	ret
	.cfi_endproc
.LFE1:
	.size	transpose_submit, .-transpose_submit
	.globl	trans_desc
	.data
	.align 16
	.type	trans_desc, @object
	.size	trans_desc, 31
trans_desc:
	.string	"Simple row-wise scan transpose"
	.text
	.globl	trans
	.type	trans, @function
trans:
.LFB2:
	.loc 1 306 1
	.cfi_startproc
	endbr64
	pushq	%rbp
	.cfi_def_cfa_offset 16
	.cfi_offset 6, -16
	movq	%rsp, %rbp
	.cfi_def_cfa_register 6
	movl	%edi, -36(%rbp)
	movl	%esi, -40(%rbp)
	movq	%rdx, -48(%rbp)
	movq	%rcx, -56(%rbp)
	.loc 1 305 30
	movl	-36(%rbp), %eax
	movslq	%eax, %rdx
	subq	$1, %rdx
	.loc 1 305 6
	movq	%rdx, -16(%rbp)
	movslq	%eax, %rdx
	movq	%rdx, %r10
	movl	$0, %r11d
	.loc 1 305 43
	movl	-40(%rbp), %edx
	movslq	%edx, %rcx
	subq	$1, %rcx
	.loc 1 305 6
	movq	%rcx, -8(%rbp)
	movslq	%edx, %rcx
	movq	%rcx, %r8
	movl	$0, %r9d
	.loc 1 309 12
	movl	$0, -24(%rbp)
	.loc 1 309 5
	jmp	.L62
.L65:
	.loc 1 310 16
	movl	$0, -28(%rbp)
	.loc 1 310 9
	jmp	.L63
.L64:
	.loc 1 311 20 discriminator 3
	movl	-24(%rbp), %ecx
	movslq	%ecx, %rsi
	movslq	%eax, %rcx
	imulq	%rsi, %rcx
	leaq	0(,%rcx,4), %rsi
	movq	-48(%rbp), %rcx
	addq	%rcx, %rsi
	.loc 1 311 17 discriminator 3
	movl	-28(%rbp), %ecx
	movslq	%ecx, %rcx
	movl	(%rsi,%rcx,4), %ecx
	movl	%ecx, -20(%rbp)
	.loc 1 312 14 discriminator 3
	movl	-28(%rbp), %ecx
	movslq	%ecx, %rsi
	movslq	%edx, %rcx
	imulq	%rsi, %rcx
	leaq	0(,%rcx,4), %rsi
	movq	-56(%rbp), %rcx
	leaq	(%rsi,%rcx), %rdi
	.loc 1 312 21 discriminator 3
	movl	-24(%rbp), %ecx
	movslq	%ecx, %rcx
	movl	-20(%rbp), %esi
	movl	%esi, (%rdi,%rcx,4)
	.loc 1 310 29 discriminator 3
	addl	$1, -28(%rbp)
.L63:
	.loc 1 310 9 discriminator 1
	movl	-28(%rbp), %ecx
	cmpl	-36(%rbp), %ecx
	jl	.L64
	.loc 1 309 25 discriminator 2
	addl	$1, -24(%rbp)
.L62:
	.loc 1 309 5 discriminator 1
	movl	-24(%rbp), %ecx
	cmpl	-40(%rbp), %ecx
	jl	.L65
	.loc 1 316 1
	nop
	nop
	popq	%rbp
	.cfi_def_cfa 7, 8
	ret
	.cfi_endproc
.LFE2:
	.size	trans, .-trans
	.globl	registerFunctions
	.type	registerFunctions, @function
registerFunctions:
.LFB3:
	.loc 1 326 1
	.cfi_startproc
	endbr64
	pushq	%rbp
	.cfi_def_cfa_offset 16
	.cfi_offset 6, -16
	movq	%rsp, %rbp
	.cfi_def_cfa_register 6
	.loc 1 328 5
	leaq	transpose_submit_desc(%rip), %rsi
	leaq	transpose_submit(%rip), %rdi
	call	registerTransFunction@PLT
	.loc 1 331 5
	leaq	trans_desc(%rip), %rsi
	leaq	trans(%rip), %rdi
	call	registerTransFunction@PLT
	.loc 1 333 1
	nop
	popq	%rbp
	.cfi_def_cfa 7, 8
	ret
	.cfi_endproc
.LFE3:
	.size	registerFunctions, .-registerFunctions
	.globl	is_transpose
	.type	is_transpose, @function
is_transpose:
.LFB4:
	.loc 1 341 1
	.cfi_startproc
	endbr64
	pushq	%rbp
	.cfi_def_cfa_offset 16
	.cfi_offset 6, -16
	movq	%rsp, %rbp
	.cfi_def_cfa_register 6
	movl	%edi, -36(%rbp)
	movl	%esi, -40(%rbp)
	movq	%rdx, -48(%rbp)
	movq	%rcx, -56(%rbp)
	.loc 1 340 36
	movl	-36(%rbp), %eax
	movslq	%eax, %rdx
	subq	$1, %rdx
	.loc 1 340 5
	movq	%rdx, -16(%rbp)
	movslq	%eax, %rdx
	movq	%rdx, %r10
	movl	$0, %r11d
	.loc 1 340 49
	movl	-40(%rbp), %edx
	movslq	%edx, %rcx
	subq	$1, %rcx
	.loc 1 340 5
	movq	%rcx, -8(%rbp)
	movslq	%edx, %rcx
	movq	%rcx, %r8
	movl	$0, %r9d
	.loc 1 344 12
	movl	$0, -20(%rbp)
	.loc 1 344 5
	jmp	.L68
.L73:
	.loc 1 345 16
	movl	$0, -24(%rbp)
	.loc 1 345 9
	jmp	.L69
.L72:
	.loc 1 346 18
	movl	-20(%rbp), %ecx
	movslq	%ecx, %rsi
	movslq	%eax, %rcx
	imulq	%rsi, %rcx
	leaq	0(,%rcx,4), %rsi
	movq	-48(%rbp), %rcx
	addq	%rcx, %rsi
	.loc 1 346 21
	movl	-24(%rbp), %ecx
	movslq	%ecx, %rcx
	movl	(%rsi,%rcx,4), %esi
	.loc 1 346 29
	movl	-24(%rbp), %ecx
	movslq	%ecx, %rdi
	movslq	%edx, %rcx
	imulq	%rdi, %rcx
	leaq	0(,%rcx,4), %rdi
	movq	-56(%rbp), %rcx
	addq	%rcx, %rdi
	.loc 1 346 32
	movl	-20(%rbp), %ecx
	movslq	%ecx, %rcx
	movl	(%rdi,%rcx,4), %ecx
	.loc 1 346 16
	cmpl	%ecx, %esi
	je	.L70
	.loc 1 347 24
	movl	$0, %eax
	jmp	.L71
.L70:
	.loc 1 345 28 discriminator 2
	addl	$1, -24(%rbp)
.L69:
	.loc 1 345 9 discriminator 1
	movl	-24(%rbp), %ecx
	cmpl	-36(%rbp), %ecx
	jl	.L72
	.loc 1 344 25 discriminator 2
	addl	$1, -20(%rbp)
.L68:
	.loc 1 344 5 discriminator 1
	movl	-20(%rbp), %ecx
	cmpl	-40(%rbp), %ecx
	jl	.L73
	.loc 1 351 12
	movl	$1, %eax
.L71:
	.loc 1 352 1
	popq	%rbp
	.cfi_def_cfa 7, 8
	ret
	.cfi_endproc
.LFE4:
	.size	is_transpose, .-is_transpose
.Letext0:
	.file 2 "/usr/lib/gcc/x86_64-linux-gnu/9/include/stddef.h"
	.file 3 "/usr/include/x86_64-linux-gnu/bits/types.h"
	.file 4 "/usr/include/x86_64-linux-gnu/bits/types/struct_FILE.h"
	.file 5 "/usr/include/x86_64-linux-gnu/bits/types/FILE.h"
	.file 6 "/usr/include/stdio.h"
	.section	.note.GNU-stack,"",@progbits
	.section	.note.gnu.property,"a"
	.align 8
	.long	 1f - 0f
	.long	 4f - 1f
	.long	 5
0:
	.string	 "GNU"
1:
	.align 8
	.long	 0xc0000002
	.long	 3f - 2f
2:
	.long	 0x3
3:
	.align 8
4:
